; Function Attrs: nounwind uwtable
define noundef ptr @generateWorkingAig(ptr noundef readonly captures(none) %0, ptr noundef readonly captures(none) %1, ptr noundef writeonly captures(none) %2) local_unnamed_addr #0 {
  %4 = tail call ptr @collectCSSignals(ptr noundef %1, ptr noundef %0)
  %5 = tail call ptr @createNewAigWith0LivePo(ptr noundef %0, ptr noundef %4, ptr noundef %2)
  %6 = getelementptr inbounds nuw i8, ptr %4, i64 8
  %7 = load ptr, ptr %6, align 8
  %.not.i = icmp eq ptr %7, null
  br i1 %.not.i, label %Vec_PtrFree.exit, label %8

8:                                                ; preds = %3
  tail call void @free(ptr noundef nonnull %7) #9
  br label %Vec_PtrFree.exit

Vec_PtrFree.exit:                                 ; preds = %3, %8
  tail call void @free(ptr noundef nonnull %4) #9
  ret ptr %5
}